target datalayout = "e-m:e-p270:32:32-p271:32:32-p272:64:64-i64:64-i128:128-f80:128-n8:16:32:64-S128"
target triple = "x86_64-pc-linux-gnu"

%struct.nghttp2_session = type { %struct.nghttp2_map, %struct.nghttp2_stream, %struct.nghttp2_outbound_queue, %struct.nghttp2_outbound_queue, %struct.nghttp2_outbound_queue, [8 x %struct.anon], %struct.nghttp2_active_outbound_item, %struct.nghttp2_inbound_frame, %struct.nghttp2_hd_deflater, %struct.nghttp2_hd_inflater, %struct.nghttp2_session_callbacks, %struct.nghttp2_mem, ptr, ptr, ptr, ptr, ptr, ptr, i64, i64, i64, i64, i64, i64, i64, i64, i64, i64, i64, i64, i32, i32, i32, i32, i32, i32, i32, i32, i32, i32, i32, i32, i8, %struct.nghttp2_settings_storage, %struct.nghttp2_settings_storage, i32, i32, i32, i8, i8, i8, i8, i8, i8, i8, [32 x i8] }
%struct.nghttp2_map = type { ptr, ptr, i64, i32, i32 }
%struct.nghttp2_stream = type { %struct.nghttp2_pq_entry, %struct.nghttp2_pq, i64, i64, i64, i64, i64, i64, ptr, ptr, ptr, ptr, ptr, ptr, ptr, ptr, i64, i32, i32, i32, i32, i32, i32, i32, i32, i32, i32, i16, i32, i8, i8, i8, i8, i8, i8 }
%struct.nghttp2_pq_entry = type { i64 }
%struct.nghttp2_pq = type { ptr, ptr, i64, i64, ptr }
%struct.nghttp2_outbound_queue = type { ptr, ptr, i64 }
%struct.anon = type { %struct.nghttp2_pq }
%struct.nghttp2_active_outbound_item = type { ptr, %struct.nghttp2_bufs, i32 }
%struct.nghttp2_bufs = type { ptr, ptr, ptr, i64, i64, i64, i64, i64 }
%struct.nghttp2_inbound_frame = type { %union.nghttp2_frame, %union.nghttp2_ext_frame_payload, ptr, %struct.nghttp2_buf, %struct.nghttp2_buf, ptr, i64, i64, i64, i64, i32, [32 x i8] }
%union.nghttp2_frame = type { %struct.nghttp2_headers }
%struct.nghttp2_headers = type { %struct.nghttp2_frame_hd, i64, %struct.nghttp2_priority_spec, ptr, i64, i32 }
%struct.nghttp2_frame_hd = type { i64, i32, i8, i8, i8 }
%struct.nghttp2_priority_spec = type { i32, i32, i8 }
%union.nghttp2_ext_frame_payload = type { %struct.nghttp2_ext_altsvc }
%struct.nghttp2_ext_altsvc = type { ptr, i64, ptr, i64 }
%struct.nghttp2_buf = type { ptr, ptr, ptr, ptr, ptr }
%struct.nghttp2_hd_deflater = type { %struct.nghttp2_hd_context, %struct.nghttp2_hd_map, i64, i64, i8 }
%struct.nghttp2_hd_context = type { %struct.nghttp2_hd_ringbuf, ptr, i64, i64, i32, i8 }
%struct.nghttp2_hd_ringbuf = type { ptr, i64, i64, i64 }
%struct.nghttp2_hd_map = type { [128 x ptr] }
%struct.nghttp2_hd_inflater = type { %struct.nghttp2_hd_context, %struct.nghttp2_hd_huff_decode_context, %struct.nghttp2_buf, %struct.nghttp2_buf, ptr, ptr, ptr, ptr, i64, i64, i64, i64, i64, i32, i32, i8, i8, i8 }
%struct.nghttp2_hd_huff_decode_context = type { i16 }
%struct.nghttp2_session_callbacks = type { ptr, ptr, ptr, ptr, ptr, ptr, ptr, ptr, ptr, ptr, ptr, ptr, ptr, ptr, ptr, ptr, ptr, ptr, ptr, ptr, ptr, ptr, ptr }
%struct.nghttp2_mem = type { ptr, ptr, ptr, ptr, ptr }
%struct.nghttp2_settings_storage = type { i32, i32, i32, i32, i32, i32, i32, i32 }
%struct.nghttp2_outbound_item = type { %union.nghttp2_frame, %union.nghttp2_ext_frame_payload, %union.nghttp2_aux_data, i64, ptr, i8 }
%union.nghttp2_aux_data = type { %struct.nghttp2_headers_aux_data }
%struct.nghttp2_headers_aux_data = type { %struct.nghttp2_data_provider, ptr, i32, i8 }
%struct.nghttp2_data_provider = type { %union.nghttp2_data_source, ptr }
%union.nghttp2_data_source = type { ptr }

; Function Attrs: nounwind uwtable
define dso_local i32 @nghttp2_session_is_my_stream_id(ptr noundef %0, i32 noundef %1) #0 {
  %3 = alloca i32, align 4
  %4 = alloca ptr, align 8
  %5 = alloca i32, align 4
  %6 = alloca i32, align 4
  %7 = alloca i32, align 4
  store ptr %0, ptr %4, align 8, !tbaa !8
  store i32 %1, ptr %5, align 4, !tbaa !4
  call void @llvm.lifetime.start.p0(i64 4, ptr %6) #9
  %8 = load i32, ptr %5, align 4, !tbaa !4
  %9 = icmp eq i32 %8, 0
  br i1 %9, label %10, label %11

10:                                               ; preds = %2
  store i32 0, ptr %3, align 4
  store i32 1, ptr %7, align 4
  br label %26

11:                                               ; preds = %2
  %12 = load i32, ptr %5, align 4, !tbaa !4
  %13 = and i32 %12, 1
  store i32 %13, ptr %6, align 4, !tbaa !4
  %14 = load ptr, ptr %4, align 8, !tbaa !8
  %15 = getelementptr inbounds nuw %struct.nghttp2_session, ptr %14, i32 0, i32 52
  %16 = load i8, ptr %15, align 4, !tbaa !45
  %17 = icmp ne i8 %16, 0
  br i1 %17, label %18, label %22

18:                                               ; preds = %11
  %19 = load i32, ptr %6, align 4, !tbaa !4
  %20 = icmp eq i32 %19, 0
  %21 = zext i1 %20 to i32
  store i32 %21, ptr %3, align 4
  store i32 1, ptr %7, align 4
  br label %26

22:                                               ; preds = %11
  %23 = load i32, ptr %6, align 4, !tbaa !4
  %24 = icmp eq i32 %23, 1
  %25 = zext i1 %24 to i32
  store i32 %25, ptr %3, align 4
  store i32 1, ptr %7, align 4
  br label %26

26:                                               ; preds = %22, %18, %10
  call void @llvm.lifetime.end.p0(i64 4, ptr %6) #9
  %27 = load i32, ptr %3, align 4
  ret i32 %27
}

; Function Attrs: nounwind uwtable
define dso_local ptr @nghttp2_session_get_stream(ptr noundef %0, i32 noundef %1) #0 {
  %3 = alloca ptr, align 8
  %4 = alloca ptr, align 8
  %5 = alloca i32, align 4
  %6 = alloca ptr, align 8
  %7 = alloca i32, align 4
  store ptr %0, ptr %4, align 8, !tbaa !8
  store i32 %1, ptr %5, align 4, !tbaa !4
  call void @llvm.lifetime.start.p0(i64 8, ptr %6) #9
  %8 = load ptr, ptr %4, align 8, !tbaa !8
  %9 = getelementptr inbounds nuw %struct.nghttp2_session, ptr %8, i32 0, i32 0
  %10 = load i32, ptr %5, align 4, !tbaa !4
  %11 = call ptr @nghttp2_map_find(ptr noundef %9, i32 noundef %10)
  store ptr %11, ptr %6, align 8, !tbaa !46
  %12 = load ptr, ptr %6, align 8, !tbaa !46
  %13 = icmp eq ptr %12, null
  br i1 %13, label %26, label %14

14:                                               ; preds = %2
  %15 = load ptr, ptr %6, align 8, !tbaa !46
  %16 = getelementptr inbounds nuw %struct.nghttp2_stream, ptr %15, i32 0, i32 29
  %17 = load i8, ptr %16, align 8, !tbaa !47
  %18 = zext i8 %17 to i32
  %19 = and i32 %18, 2
  %20 = icmp ne i32 %19, 0
  br i1 %20, label %26, label %21

21:                                               ; preds = %14
  %22 = load ptr, ptr %6, align 8, !tbaa !46
  %23 = getelementptr inbounds nuw %struct.nghttp2_stream, ptr %22, i32 0, i32 26
  %24 = load i32, ptr %23, align 4, !tbaa !48
  %25 = icmp eq i32 %24, 5
  br i1 %25, label %26, label %27

26:                                               ; preds = %21, %14, %2
  store ptr null, ptr %3, align 8
  store i32 1, ptr %7, align 4
  br label %29

27:                                               ; preds = %21
  %28 = load ptr, ptr %6, align 8, !tbaa !46
  store ptr %28, ptr %3, align 8
  store i32 1, ptr %7, align 4
  br label %29

29:                                               ; preds = %27, %26
  call void @llvm.lifetime.end.p0(i64 8, ptr %6) #9
  %30 = load ptr, ptr %3, align 8
  ret ptr %30
}

; Function Attrs: nounwind uwtable
define dso_local i32 @nghttp2_session_set_stream_user_data(ptr noundef %0, i32 noundef %1, ptr noundef %2) #0 {
  %4 = alloca i32, align 4
  %5 = alloca ptr, align 8
  %6 = alloca i32, align 4
  %7 = alloca ptr, align 8
  %8 = alloca ptr, align 8
  %9 = alloca ptr, align 8
  %10 = alloca ptr, align 8
  %11 = alloca i32, align 4
  store ptr %0, ptr %5, align 8, !tbaa !8
  store i32 %1, ptr %6, align 4, !tbaa !4
  store ptr %2, ptr %7, align 8, !tbaa !53
  call void @llvm.lifetime.start.p0(i64 8, ptr %8) #9
  call void @llvm.lifetime.start.p0(i64 8, ptr %9) #9
  call void @llvm.lifetime.start.p0(i64 8, ptr %10) #9
  %12 = load ptr, ptr %5, align 8, !tbaa !8
  %13 = load i32, ptr %6, align 4, !tbaa !4
  %14 = call ptr @nghttp2_session_get_stream(ptr noundef %12, i32 noundef %13)
  store ptr %14, ptr %8, align 8, !tbaa !46
  %15 = load ptr, ptr %8, align 8, !tbaa !46
  %16 = icmp ne ptr %15, null
  br i1 %16, label %17, label %21

17:                                               ; preds = %3
  %18 = load ptr, ptr %7, align 8, !tbaa !53
  %19 = load ptr, ptr %8, align 8, !tbaa !46
  %20 = getelementptr inbounds nuw %struct.nghttp2_stream, ptr %19, i32 0, i32 14
  store ptr %18, ptr %20, align 8, !tbaa !134
  store i32 0, ptr %4, align 4
  store i32 1, ptr %11, align 4
  br label %91

21:                                               ; preds = %3
  %22 = load ptr, ptr %5, align 8, !tbaa !8
  %23 = getelementptr inbounds nuw %struct.nghttp2_session, ptr %22, i32 0, i32 52
  %24 = load i8, ptr %23, align 4, !tbaa !45
  %25 = zext i8 %24 to i32
  %26 = icmp ne i32 %25, 0
  br i1 %26, label %38, label %27

27:                                               ; preds = %21
  %28 = load ptr, ptr %5, align 8, !tbaa !8
  %29 = load i32, ptr %6, align 4, !tbaa !4
  %30 = call i32 @nghttp2_session_is_my_stream_id(ptr noundef %28, i32 noundef %29)
  %31 = icmp ne i32 %30, 0
  br i1 %31, label %32, label %38

32:                                               ; preds = %27
  %33 = load ptr, ptr %5, align 8, !tbaa !8
  %34 = getelementptr inbounds nuw %struct.nghttp2_session, ptr %33, i32 0, i32 4
  %35 = getelementptr inbounds nuw %struct.nghttp2_outbound_queue, ptr %34, i32 0, i32 0
  %36 = load ptr, ptr %35, align 8, !tbaa !145
  %37 = icmp ne ptr %36, null
  br i1 %37, label %39, label %38

38:                                               ; preds = %32, %27, %21
  store i32 -501, ptr %4, align 4
  store i32 1, ptr %11, align 4
  br label %91

39:                                               ; preds = %32
  %40 = load ptr, ptr %5, align 8, !tbaa !8
  %41 = getelementptr inbounds nuw %struct.nghttp2_session, ptr %40, i32 0, i32 4
  %42 = getelementptr inbounds nuw %struct.nghttp2_outbound_queue, ptr %41, i32 0, i32 0
  %43 = load ptr, ptr %42, align 8, !tbaa !145
  %44 = getelementptr inbounds nuw %struct.nghttp2_outbound_item, ptr %43, i32 0, i32 0
  store ptr %44, ptr %9, align 8, !tbaa !53
  %45 = load ptr, ptr %9, align 8, !tbaa !53
  %46 = getelementptr inbounds nuw %struct.nghttp2_frame_hd, ptr %45, i32 0, i32 1
  %47 = load i32, ptr %46, align 8, !tbaa !115
  %48 = load i32, ptr %6, align 4, !tbaa !4
  %49 = icmp sgt i32 %47, %48
  br i1 %49, label %56, label %50

50:                                               ; preds = %39
  %51 = load i32, ptr %6, align 4, !tbaa !4
  %52 = load ptr, ptr %5, align 8, !tbaa !8
  %53 = getelementptr inbounds nuw %struct.nghttp2_session, ptr %52, i32 0, i32 30
  %54 = load i32, ptr %53, align 8, !tbaa !56
  %55 = icmp uge i32 %51, %54
  br i1 %55, label %56, label %57

56:                                               ; preds = %50, %39
  store i32 -501, ptr %4, align 4
  store i32 1, ptr %11, align 4
  br label %91

57:                                               ; preds = %50
  %58 = load ptr, ptr %5, align 8, !tbaa !8
  %59 = getelementptr inbounds nuw %struct.nghttp2_session, ptr %58, i32 0, i32 4
  %60 = getelementptr inbounds nuw %struct.nghttp2_outbound_queue, ptr %59, i32 0, i32 0
  %61 = load ptr, ptr %60, align 8, !tbaa !145
  store ptr %61, ptr %10, align 8, !tbaa !106
  br label %62

62:                                               ; preds = %86, %57
  %63 = load ptr, ptr %10, align 8, !tbaa !106
  %64 = icmp ne ptr %63, null
  br i1 %64, label %65, label %90

65:                                               ; preds = %62
  %66 = load ptr, ptr %10, align 8, !tbaa !106
  %67 = getelementptr inbounds nuw %struct.nghttp2_outbound_item, ptr %66, i32 0, i32 0
  %68 = getelementptr inbounds nuw %struct.nghttp2_frame_hd, ptr %67, i32 0, i32 1
  %69 = load i32, ptr %68, align 8, !tbaa !115
  %70 = load i32, ptr %6, align 4, !tbaa !4
  %71 = icmp slt i32 %69, %70
  br i1 %71, label %72, label %73

72:                                               ; preds = %65
  br label %86

73:                                               ; preds = %65
  %74 = load ptr, ptr %10, align 8, !tbaa !106
  %75 = getelementptr inbounds nuw %struct.nghttp2_outbound_item, ptr %74, i32 0, i32 0
  %76 = getelementptr inbounds nuw %struct.nghttp2_frame_hd, ptr %75, i32 0, i32 1
  %77 = load i32, ptr %76, align 8, !tbaa !115
  %78 = load i32, ptr %6, align 4, !tbaa !4
  %79 = icmp sgt i32 %77, %78
  br i1 %79, label %80, label %81

80:                                               ; preds = %73
  br label %90

81:                                               ; preds = %73
  %82 = load ptr, ptr %7, align 8, !tbaa !53
  %83 = load ptr, ptr %10, align 8, !tbaa !106
  %84 = getelementptr inbounds nuw %struct.nghttp2_outbound_item, ptr %83, i32 0, i32 2
  %85 = getelementptr inbounds nuw %struct.nghttp2_headers_aux_data, ptr %84, i32 0, i32 1
  store ptr %82, ptr %85, align 8, !tbaa !115
  store i32 0, ptr %4, align 4
  store i32 1, ptr %11, align 4
  br label %91

86:                                               ; preds = %72
  %87 = load ptr, ptr %10, align 8, !tbaa !106
  %88 = getelementptr inbounds nuw %struct.nghttp2_outbound_item, ptr %87, i32 0, i32 4
  %89 = load ptr, ptr %88, align 8, !tbaa !111
  store ptr %89, ptr %10, align 8, !tbaa !106
  br label %62, !llvm.loop !278

90:                                               ; preds = %80, %62
  store i32 -501, ptr %4, align 4
  store i32 1, ptr %11, align 4
  br label %91

91:                                               ; preds = %90, %81, %56, %38, %17
  call void @llvm.lifetime.end.p0(i64 8, ptr %10) #9
  call void @llvm.lifetime.end.p0(i64 8, ptr %9) #9
  call void @llvm.lifetime.end.p0(i64 8, ptr %8) #9
  %92 = load i32, ptr %4, align 4
  ret i32 %92
}