; Function Attrs: nounwind uwtable
define dso_local range(i32 -501, 1) i32 @nghttp2_session_set_stream_user_data(ptr noundef %0, i32 noundef %1, ptr noundef %2) local_unnamed_addr #1 {
  %4 = tail call ptr @nghttp2_map_find(ptr noundef %0, i32 noundef %1) #20
  %5 = icmp eq ptr %4, null
  br i1 %5, label %select.unfold, label %6

6:                                                ; preds = %3
  %7 = getelementptr inbounds nuw i8, ptr %4, i64 216
  %8 = load i8, ptr %7, align 8, !tbaa !41
  %9 = and i8 %8, 2
  %.not.i = icmp eq i8 %9, 0
  br i1 %.not.i, label %10, label %select.unfold

10:                                               ; preds = %6
  %11 = getelementptr inbounds nuw i8, ptr %4, i64 204
  %12 = load i32, ptr %11, align 4, !tbaa !42
  %13 = icmp eq i32 %12, 5
  br i1 %13, label %select.unfold, label %nghttp2_session_get_stream.exit

nghttp2_session_get_stream.exit:                  ; preds = %10
  %14 = getelementptr inbounds nuw i8, ptr %4, i64 144
  store ptr %2, ptr %14, align 8, !tbaa !134
  br label %nghttp2_session_is_my_stream_id.exit.thread

select.unfold:                                    ; preds = %10, %6, %3
  %15 = getelementptr inbounds nuw i8, ptr %0, i64 2844
  %16 = load i8, ptr %15, align 4, !tbaa !40
  %.not28 = icmp ne i8 %16, 0
  %17 = and i32 %1, 1
  %.not29 = icmp eq i32 %17, 0
  %or.cond40 = or i1 %.not29, %.not28
  br i1 %or.cond40, label %nghttp2_session_is_my_stream_id.exit.thread, label %18

18:                                               ; preds = %select.unfold
  %19 = getelementptr inbounds nuw i8, ptr %0, i64 304
  %20 = load ptr, ptr %19, align 8, !tbaa !148
  %.not30 = icmp eq ptr %20, null
  br i1 %.not30, label %nghttp2_session_is_my_stream_id.exit.thread, label %21

21:                                               ; preds = %18
  %22 = getelementptr inbounds nuw i8, ptr %20, i64 8
  %23 = load i32, ptr %22, align 8, !tbaa !111
  %24 = icmp sgt i32 %23, %1
  br i1 %24, label %nghttp2_session_is_my_stream_id.exit.thread, label %25

25:                                               ; preds = %21
  %26 = getelementptr inbounds nuw i8, ptr %0, i64 2712
  %27 = load i32, ptr %26, align 8, !tbaa !45
  %.not31 = icmp ult i32 %1, %27
  br i1 %.not31, label %.preheader, label %nghttp2_session_is_my_stream_id.exit.thread

.preheader:                                       ; preds = %25, %35
  %.042 = phi ptr [ %37, %35 ], [ %20, %25 ]
  %28 = getelementptr inbounds nuw i8, ptr %.042, i64 8
  %29 = load i32, ptr %28, align 8, !tbaa !111
  %30 = icmp slt i32 %29, %1
  br i1 %30, label %35, label %31

31:                                               ; preds = %.preheader
  %32 = icmp sgt i32 %29, %1
  br i1 %32, label %nghttp2_session_is_my_stream_id.exit.thread, label %33

33:                                               ; preds = %31
  %34 = getelementptr inbounds nuw i8, ptr %.042, i64 112
  store ptr %2, ptr %34, align 8, !tbaa !111
  br label %nghttp2_session_is_my_stream_id.exit.thread

35:                                               ; preds = %.preheader
  %36 = getelementptr inbounds nuw i8, ptr %.042, i64 136
  %37 = load ptr, ptr %36, align 8, !tbaa !103
  %.not32 = icmp eq ptr %37, null
  br i1 %.not32, label %nghttp2_session_is_my_stream_id.exit.thread, label %.preheader, !llvm.loop !277

nghttp2_session_is_my_stream_id.exit.thread:      ; preds = %35, %31, %21, %25, %select.unfold, %18, %33, %nghttp2_session_get_stream.exit
  %.023 = phi i32 [ 0, %nghttp2_session_get_stream.exit ], [ 0, %33 ], [ -501, %18 ], [ -501, %select.unfold ], [ -501, %25 ], [ -501, %21 ], [ -501, %31 ], [ -501, %35 ]
  ret i32 %.023
}